; Function Attrs: mustprogress uwtable
define void @_ZN2cv5flann5Index7releaseEv(ptr noundef nonnull align 8 dereferenceable(128) %0) unnamed_addr #7 align 2 personality ptr @__gxx_personality_v0 {
  %2 = alloca %"class.cv::utils::trace::details::Region", align 8
  %3 = alloca %"class.std::__cxx11::basic_string", align 8
  %4 = alloca %"class.std::allocator.0", align 1
  call void @llvm.lifetime.start.p0(i64 16, ptr nonnull %2) #34
  call void @_ZN2cv5utils5trace7details6RegionC1ERKNS3_21LocationStaticStorageE(ptr noundef nonnull align 8 dereferenceable(12) %2, ptr noundef nonnull align 8 dereferenceable(32) @_ZZN2cv5flann5Index7releaseEvE25__cv_trace_location_fn467)
  %5 = getelementptr inbounds nuw i8, ptr %0, i64 32
  invoke void @_ZN2cv3Mat7releaseEv(ptr noundef nonnull align 8 dereferenceable(96) %5)
          to label %6 unwind label %9

6:                                                ; preds = %1
  %7 = getelementptr inbounds nuw i8, ptr %0, i64 24
  %8 = load ptr, ptr %7, align 8, !tbaa !74
  %.not = icmp eq ptr %8, null
  br i1 %.not, label %30, label %11

9:                                                ; preds = %1
  %10 = landingpad { ptr, i32 }
          cleanup
  br label %37

11:                                               ; preds = %6
  %12 = getelementptr inbounds nuw i8, ptr %0, i64 8
  %13 = load i32, ptr %12, align 8, !tbaa !86
  switch i32 %13, label %14 [
    i32 9, label %_ZN2cv5flann11deleteIndexIN7cvflann10HammingLUTEEEvPv.exit
    i32 1, label %_ZN2cv5flann11deleteIndexIN7cvflann10HammingLUTEEEvPv.exit
    i32 2, label %_ZN2cv5flann11deleteIndexIN7cvflann10HammingLUTEEEvPv.exit
  ]

14:                                               ; preds = %11
  call void @llvm.lifetime.start.p0(i64 32, ptr nonnull %3) #34
  call void @llvm.lifetime.start.p0(i64 1, ptr nonnull %4) #34
  invoke void @_ZNSt7__cxx1112basic_stringIcSt11char_traitsIcESaIcEEC2EPKcRKS3_(ptr noundef nonnull align 8 dereferenceable(32) %3, ptr noundef nonnull @.str.21, ptr noundef nonnull align 1 dereferenceable(1) %4)
          to label %15 unwind label %17

15:                                               ; preds = %14
  invoke void @_ZN2cv5errorEiRKNSt7__cxx1112basic_stringIcSt11char_traitsIcESaIcEEEPKcS9_i(i32 noundef -5, ptr noundef nonnull align 8 dereferenceable(32) %3, ptr noundef nonnull @__func__._ZN2cv5flann5Index7releaseEv, ptr noundef nonnull @.str.20, i32 noundef 506) #36
          to label %16 unwind label %19

16:                                               ; preds = %15
  unreachable

17:                                               ; preds = %14
  %18 = landingpad { ptr, i32 }
          cleanup
  br label %_ZNSt7__cxx1112basic_stringIcSt11char_traitsIcESaIcEED2Ev.exit

19:                                               ; preds = %15
  %20 = landingpad { ptr, i32 }
          cleanup
  %21 = load ptr, ptr %3, align 8, !tbaa !21
  %22 = getelementptr inbounds nuw i8, ptr %3, i64 16
  %23 = icmp eq ptr %21, %22
  br i1 %23, label %_ZNKSt7__cxx1112basic_stringIcSt11char_traitsIcESaIcEE11_M_is_localEv.exit.thread.i.i, label %_ZNKSt7__cxx1112basic_stringIcSt11char_traitsIcESaIcEE11_M_is_localEv.exit.i.i

_ZNKSt7__cxx1112basic_stringIcSt11char_traitsIcESaIcEE11_M_is_localEv.exit.thread.i.i: ; preds = %19
  %24 = getelementptr inbounds nuw i8, ptr %3, i64 8
  %25 = load i64, ptr %24, align 8, !tbaa !17
  %26 = icmp ult i64 %25, 16
  call void @llvm.assume(i1 %26)
  br label %_ZNSt7__cxx1112basic_stringIcSt11char_traitsIcESaIcEED2Ev.exit

_ZNKSt7__cxx1112basic_stringIcSt11char_traitsIcESaIcEE11_M_is_localEv.exit.i.i: ; preds = %19
  call void @_ZdlPv(ptr noundef %21) #33
  br label %_ZNSt7__cxx1112basic_stringIcSt11char_traitsIcESaIcEED2Ev.exit

_ZNSt7__cxx1112basic_stringIcSt11char_traitsIcESaIcEED2Ev.exit: ; preds = %_ZNKSt7__cxx1112basic_stringIcSt11char_traitsIcESaIcEE11_M_is_localEv.exit.i.i, %_ZNKSt7__cxx1112basic_stringIcSt11char_traitsIcESaIcEE11_M_is_localEv.exit.thread.i.i, %17
  %.pn = phi { ptr, i32 } [ %18, %17 ], [ %20, %_ZNKSt7__cxx1112basic_stringIcSt11char_traitsIcESaIcEE11_M_is_localEv.exit.thread.i.i ], [ %20, %_ZNKSt7__cxx1112basic_stringIcSt11char_traitsIcESaIcEE11_M_is_localEv.exit.i.i ]
  call void @llvm.lifetime.end.p0(i64 1, ptr nonnull %4) #34
  call void @llvm.lifetime.end.p0(i64 32, ptr nonnull %3) #34
  br label %37

_ZN2cv5flann11deleteIndexIN7cvflann10HammingLUTEEEvPv.exit: ; preds = %11, %11, %11
  %27 = load ptr, ptr %8, align 8, !tbaa !35
  %28 = getelementptr inbounds nuw i8, ptr %27, i64 8
  %29 = load ptr, ptr %28, align 8
  call void %29(ptr noundef nonnull align 8 dereferenceable(72) %8) #34
  store ptr null, ptr %7, align 8, !tbaa !74
  br label %30

30:                                               ; preds = %6, %_ZN2cv5flann11deleteIndexIN7cvflann10HammingLUTEEEvPv.exit
  %31 = getelementptr inbounds nuw i8, ptr %2, i64 8
  %32 = load i32, ptr %31, align 8, !tbaa !94
  %.not.i = icmp eq i32 %32, 0
  br i1 %.not.i, label %_ZN2cv5utils5trace7details6RegionD2Ev.exit, label %33

33:                                               ; preds = %30
  invoke void @_ZN2cv5utils5trace7details6Region7destroyEv(ptr noundef nonnull align 8 dereferenceable(12) %2)
          to label %_ZN2cv5utils5trace7details6RegionD2Ev.exit unwind label %34

34:                                               ; preds = %33
  %35 = landingpad { ptr, i32 }
          catch ptr null
  %36 = extractvalue { ptr, i32 } %35, 0
  call void @__clang_call_terminate(ptr %36) #32
  unreachable

_ZN2cv5utils5trace7details6RegionD2Ev.exit:       ; preds = %30, %33
  call void @llvm.lifetime.end.p0(i64 16, ptr nonnull %2) #34
  ret void

37:                                               ; preds = %_ZNSt7__cxx1112basic_stringIcSt11char_traitsIcESaIcEED2Ev.exit, %9
  %.pn.pn = phi { ptr, i32 } [ %.pn, %_ZNSt7__cxx1112basic_stringIcSt11char_traitsIcESaIcEED2Ev.exit ], [ %10, %9 ]
  call void @_ZN2cv5utils5trace7details6RegionD2Ev(ptr noundef nonnull align 8 dereferenceable(12) %2) #34
  call void @llvm.lifetime.end.p0(i64 16, ptr nonnull %2) #34
  resume { ptr, i32 } %.pn.pn
}